                        .module main.c
                        .area text(rom, con, rel)
 0000                   .dbfile C:\MPU_2025_2\snake-game\main.c
                        .area data(ram, con, rel)
 0000                   .dbfile C:\MPU_2025_2\snake-game\main.c
 0000           _flag#h::
 0000                   .blkb 1
                        .area idata(rom)
 0000 00                .byte 0
                        .area data(ram, con, rel)
 0001                   .dbfile C:\MPU_2025_2\snake-game\main.c
 0001                   .dbsym e flag _flag#h c
 0001           _snake#h::
 0001                   .blkb 1
                        .area idata(rom)
 0001 05                .byte 5
                        .area data(ram, con, rel)
 0002                   .dbfile C:\MPU_2025_2\snake-game\main.c
 0002                   .dbsym e snake _snake#h c
 0002           _x_max#h::
 0002                   .blkb 1
                        .area idata(rom)
 0002 32                .byte 50
                        .area data(ram, con, rel)
 0003                   .dbfile C:\MPU_2025_2\snake-game\main.c
 0003                   .dbsym e x_max _x_max#h c
 0003           _y_max#h::
 0003                   .blkb 1
                        .area idata(rom)
 0003 0F                .byte 15
                        .area data(ram, con, rel)
 0004                   .dbfile C:\MPU_2025_2\snake-game\main.c
 0004                   .dbsym e y_max _y_max#h c
 0004           _pixel_x#h::
 0004                   .blkb 1
                        .area idata(rom)
 0004 00                .byte 0
                        .area data(ram, con, rel)
 0005                   .dbfile C:\MPU_2025_2\snake-game\main.c
 0005                   .dbsym e pixel_x _pixel_x#h c
 0005           _pixel_y#h::
 0005                   .blkb 1
                        .area idata(rom)
 0005 00                .byte 0
                        .area data(ram, con, rel)
 0006                   .dbfile C:\MPU_2025_2\snake-game\main.c
 0006                   .dbsym e pixel_y _pixel_y#h c
 0006           _head_x#h::
 0006                   .blkb 1
                        .area idata(rom)
 0006 05                .byte 5
                        .area data(ram, con, rel)
 0007                   .dbfile C:\MPU_2025_2\snake-game\main.c
 0007                   .dbsym e head_x _head_x#h c
 0007           _head_y#h::
 0007                   .blkb 1
                        .area idata(rom)
 0007 00                .byte 0
                        .area data(ram, con, rel)
 0008                   .dbfile C:\MPU_2025_2\snake-game\main.c
 0008                   .dbsym e head_y _head_y#h c
 0008           _tail_x#h::
 0008                   .blkb 1
                        .area idata(rom)
 0008 00                .byte 0
                        .area data(ram, con, rel)
 0009                   .dbfile C:\MPU_2025_2\snake-game\main.c
 0009                   .dbsym e tail_x _tail_x#h c
 0009           _tail_y#h::
 0009                   .blkb 1
                        .area idata(rom)
 0009 00                .byte 0
                        .area data(ram, con, rel)
 000A                   .dbfile C:\MPU_2025_2\snake-game\main.c
 000A                   .dbsym e tail_y _tail_y#h c
 000A           _dir_num#h::
 000A                   .blkb 1
                        .area idata(rom)
 000A 00                .byte 0
                        .area data(ram, con, rel)
 000B                   .dbfile C:\MPU_2025_2\snake-game\main.c
 000B                   .dbsym e dir_num _dir_num#h c
 000B           _dx#A4_h::
 000B                   .blkb 2
                        .area idata(rom)
 000B 0102              .byte 1,2
                        .area data(ram, con, rel)
 000D                   .dbfile C:\MPU_2025_2\snake-game\main.c
 000D                   .blkb 2
                        .area idata(rom)
 000D 0001              .byte 0,1
                        .area data(ram, con, rel)
 000F                   .dbfile C:\MPU_2025_2\snake-game\main.c
 000F                   .dbsym e dx _dx#A4_h A[4:4]c
 000F           _dy#A4_h::
 000F                   .blkb 2
                        .area idata(rom)
 000F 0201              .byte 2,1
                        .area data(ram, con, rel)
 0011                   .dbfile C:\MPU_2025_2\snake-game\main.c
 0011                   .blkb 2
                        .area idata(rom)
 0011 0100              .byte 1,0
                        .area data(ram, con, rel)
 0013                   .dbfile C:\MPU_2025_2\snake-game\main.c
 0013                   .dbsym e dy _dy#A4_h A[4:4]c
                        .area vector(rom, abs)
                        .org 4
 0004 0C940000          jmp _ext_int0_isr
                        .area data(ram, con, rel)
 0013                   .dbfile C:\MPU_2025_2\snake-game\main.c
                        .area vector(rom, abs)
                        .org 8
 0008 0C940000          jmp _ext_int1_isr
                        .area data(ram, con, rel)
 0013                   .dbfile C:\MPU_2025_2\snake-game\main.c
                        .area vector(rom, abs)
                        .org 32
 0020 0C940000          jmp _ext_int7_isr
                        .area data(ram, con, rel)
 0013                   .dbfile C:\MPU_2025_2\snake-game\main.c
                        .area text(rom, con, rel)
 0000                   .dbfile C:\MPU_2025_2\snake-game\main.c
 0000                   .dbfunc e InRange _InRange#Fhhh fc 24
 0000           ;              y -> R18
 0000           ;              x -> R16
                        .even
 0000           _InRange#Fhhh::
 0000                   .dbblock 24
 0000                   .dbline 25
 0000 2224              clr R2
 0002 0215              cp R16,R2
 0004 68F0              brlo L2
 0006           X0:
 0006 20900200          lds R2,_x_max#h
 000A 0215              cp R16,R2
 000C 48F4              brsh L2
 000E           X1:
 000E 2224              clr R2
 0010 2215              cp R18,R2
 0012 30F0              brlo L2
 0014           X2:
 0014 20900300          lds R2,_y_max#h
 0018 2216              cp R2,R18
 001A 10F0              brlo L2
 001C           X3:
 001C                   .dbline 25
 001C 01E0              ldi R16,1
 001E 01C0              xjmp L1
 0020           L2:
 0020                   .dbline 26
 0020 0027              clr R16
 0022                   .dbblkend 27
 0022           L1:
 0022 0895              ret
 0024                   .dbfuncend
 0024                   .dbsym r y 18 c
 0024                   .dbsym r x 16 c
 0024                   .dbstacksize -6
 0024                   .dbfunc e snake_handler _snake_handler#Fvv fV 29
                        .even
 0024           _snake_handler#Fvv::
 0024                   .dbblock 29
 0024                   .dbline 30
 0024 20900900          lds R2,_tail_y#h
 0028 30900700          lds R3,_head_y#h
 002C 3218              sub R3,R2
 002E 20900800          lds R2,_tail_x#h
 0032 40900600          lds R4,_head_x#h
 0036 4218              sub R4,R2
 0038 430C              add R4,R3
 003A 40920100          sts _snake#h,R4
 003E                   .dbblkend 31
 003E           L4:
 003E 0895              ret
 0040                   .dbfuncend
 0040                   .dbstacksize -2
 0040                   .dbfunc e ext_int0_isr _ext_int0_isr#Fvv fV 35
                        .even
 0040           _ext_int0_isr#Fvv::
 0040                   .dbblock 35
 0040                   .dbblkend 37
 0040           L5:
 0040 1895              reti
 0042                   .dbfuncend
 0042                   .dbstacksize -2
 0042                   .dbfunc e ext_int1_isr _ext_int1_isr#Fvv fV 41
                        .even
 0042           _ext_int1_isr#Fvv::
 0042                   .dbblock 41
 0042                   .dbblkend 43
 0042           L6:
 0042 1895              reti
 0044                   .dbfuncend
 0044                   .dbstacksize -2
 0044                   .dbfunc e ext_int7_isr _ext_int7_isr#Fvv fV 47
                        .even
 0044           _ext_int7_isr#Fvv::
 0044           	.nocc_start
 0044 2A92              st -y,R2
 0046 8A93              st -y,R24
 0048 2FB6              IN R2,63
 004A 2A92              st -y,R2
 004C                   .dbblock 47
 004C                   .dbline 48
 004C 82E0              ldi R24,2
 004E 20900000          lds R2,_flag#h
 0052 2826              eor R2,R24
 0054 20920000          sts _flag#h,R2
 0058                   .dbblkend 49
 0058           L7:
 0058 2990              ld R2,y+
 005A 2FBE              OUT 63,R2
 005C 8991              ld R24,y+
 005E 2990              ld R2,y+
 0060           	.nocc_end
 0060 1895              reti
 0062                   .dbfuncend
 0062                   .dbstacksize 1
 0062                   .dbfunc e Interrupt_Init _Interrupt_Init#Fvv fV 51
                        .even
 0062           _Interrupt_Init#Fvv::
 0062                   .dbblock 51
 0062                   .dbline 52
 0062 7894              bset 7
 0064                   .dbline 53
 0064 89B7              in R24,0x39
 0066 8360              ori R24,3
 0068 89BF              out 0x39,R24
 006A                   .dbline 54
 006A 80916A00          lds R24,106
 006E 8A60              ori R24,10
 0070 80936A00          sts 106,R24
 0074                   .dbblkend 55
 0074           L8:
 0074 0895              ret
 0076                   .dbfuncend
 0076                   .dbstacksize -2
 0076                   .dbfunc e main _main#Fvv fV 57
                        .even
 0076           _main#Fvv::
 0076                   .dbblock 57
 0076                   .dbline 58
 0076 8FEF              ldi R24,255
 0078 87BB              out 0x17,R24
 007A                   .dbline 59
 007A 88BB              out 0x18,R24
 007C                   .dbline 60
 007C 2224              clr R2
 007E 21BA              out 0x11,R2
 0080                   .dbline 62
 0080 0E940000          xcall _PortInit#Fvv
 0084                   .dbline 63
 0084 0E940000          xcall _LCD_Init#Fvv
 0088                   .dbline 64
 0088 ECDF              xcall _Interrupt_Init#Fvv
 008A                   .dbline 66
 008A 0E940000          xcall _Cursor_Home#Fvv
 008E                   .dbline 67
 008E 00E0              ldi R16,<_10#A10_c
 0090 10E0              ldi R17,>_10#A10_c
 0092 0E940000          xcall _LCD_STR#FvPh
 0096                   .dbline 68
 0096 2227              clr R18
 0098 01E0              ldi R16,1
 009A 0E940000          xcall _LCD_pos#Fvhh
 009E                   .dbline 69
 009E 00E0              ldi R16,<_11#A10_c
 00A0 10E0              ldi R17,>_11#A10_c
 00A2 0E940000          xcall _LCD_STR#FvPh
 00A6 04C0              xjmp L13
 00A8           L12:
 00A8                   .dbline 72
 00A8 8799              sbic 0x10,7
 00AA 02C0              rjmp L15
 00AC           X4:
 00AC                   .dbline 73
 00AC 0E940000          xcall _LCD_intro#Fvv
 00B0           L15:
 00B0           L13:
 00B0                   .dbline 71
 00B0 FBCF              xjmp L12
 00B2           X5:
 00B2                   .dbblkend 81
 00B2           L9:
 00B2 0895              ret
 00B4                   .dbfuncend
 00B4                   .dbstacksize -2
                        .area bss(ram, con, rel)
 0000                   .dbfile C:\MPU_2025_2\snake-game\main.c
 0000           _ny#h::
 0000                   .blkb 1
 0001                   .dbsym e ny _ny#h c
 0001           _nx#h::
 0001                   .blkb 1
 0002                   .dbsym e nx _nx#h c
                        .area data(ram, con, rel)
 0013                   .dbfile C:\MPU_2025_2\snake-game\main.c
 0013           _11#A10_c:
 0013                   .blkb 10
                        .area idata(rom)
 0013 746F20626567696E2100      .byte 't,'o,32,'b,'e,'g,'i,'n,33,0
                        .area data(ram, con, rel)
 001D                   .dbfile C:\MPU_2025_2\snake-game\main.c
 001D           _10#A10_c:
 001D                   .blkb 10
                        .area idata(rom)
 001D 50726573732050443700      .byte 'P,'r,'e,'s,'s,32,'P,'D,55,0
                        .area data(ram, con, rel)
 0027                   .dbfile C:\MPU_2025_2\snake-game\main.c
